target datalayout = "e-m:e-p270:32:32-p271:32:32-p272:64:64-i64:64-i128:128-f80:128-n8:16:32:64-S128"
target triple = "x86_64-pc-linux-gnu"

%"class.Imf_3_4::TimeCode" = type { i32, i32 }

; Function Attrs: mustprogress nounwind uwtable
define internal noundef i32 @_ZN7Imf_3_412_GLOBAL__N_111bcdToBinaryEj(i32 noundef %0) #0 {
  %2 = alloca i32, align 4
  store i32 %0, ptr %2, align 4, !tbaa !12
  %3 = load i32, ptr %2, align 4, !tbaa !12
  %4 = and i32 %3, 15
  %5 = load i32, ptr %2, align 4, !tbaa !12
  %6 = lshr i32 %5, 4
  %7 = and i32 %6, 15
  %8 = mul i32 10, %7
  %9 = add i32 %4, %8
  ret i32 %9
}

; Function Attrs: mustprogress nounwind uwtable
define internal noundef i32 @_ZN7Imf_3_412_GLOBAL__N_18bitFieldEjii(i32 noundef %0, i32 noundef %1, i32 noundef %2) #0 {
  %4 = alloca i32, align 4
  %5 = alloca i32, align 4
  %6 = alloca i32, align 4
  %7 = alloca i32, align 4
  %8 = alloca i32, align 4
  store i32 %0, ptr %4, align 4, !tbaa !12
  store i32 %1, ptr %5, align 4, !tbaa !12
  store i32 %2, ptr %6, align 4, !tbaa !12
  call void @llvm.lifetime.start.p0(i64 4, ptr %7) #5
  %9 = load i32, ptr %5, align 4, !tbaa !12
  store i32 %9, ptr %7, align 4, !tbaa !12
  call void @llvm.lifetime.start.p0(i64 4, ptr %8) #5
  %10 = load i32, ptr %6, align 4, !tbaa !12
  %11 = load i32, ptr %5, align 4, !tbaa !12
  %12 = sub nsw i32 %10, %11
  %13 = add nsw i32 %12, 1
  %14 = shl i32 -1, %13
  %15 = xor i32 %14, -1
  %16 = load i32, ptr %5, align 4, !tbaa !12
  %17 = shl i32 %15, %16
  store i32 %17, ptr %8, align 4, !tbaa !12
  %18 = load i32, ptr %4, align 4, !tbaa !12
  %19 = load i32, ptr %8, align 4, !tbaa !12
  %20 = and i32 %18, %19
  %21 = load i32, ptr %7, align 4, !tbaa !12
  %22 = lshr i32 %20, %21
  call void @llvm.lifetime.end.p0(i64 4, ptr %8) #5
  call void @llvm.lifetime.end.p0(i64 4, ptr %7) #5
  ret i32 %22
}

; Function Attrs: mustprogress uwtable
define noundef i32 @_ZNK7Imf_3_48TimeCode5hoursEv(ptr noundef nonnull align 4 dereferenceable(8) %0) #1 align 2 {
  %2 = alloca ptr, align 8
  store ptr %0, ptr %2, align 8, !tbaa !3
  %3 = load ptr, ptr %2, align 8
  %4 = getelementptr inbounds nuw %"class.Imf_3_4::TimeCode", ptr %3, i32 0, i32 0
  %5 = load i32, ptr %4, align 4, !tbaa !8
  %6 = call noundef i32 @_ZN7Imf_3_412_GLOBAL__N_18bitFieldEjii(i32 noundef %5, i32 noundef 24, i32 noundef 29)
  %7 = call noundef i32 @_ZN7Imf_3_412_GLOBAL__N_111bcdToBinaryEj(i32 noundef %6)
  ret i32 %7
}